target datalayout = "e-m:e-p270:32:32-p271:32:32-p272:64:64-i64:64-i128:128-f80:128-n8:16:32:64-S128"
target triple = "x86_64-pc-linux-gnu"

%struct.archive_write = type { %struct.archive, i32, i64, i64, ptr, i64, ptr, ptr, ptr, ptr, ptr, i32, i32, ptr, ptr, ptr, ptr, ptr, ptr, ptr, ptr, ptr, ptr, ptr, ptr, ptr, ptr }
%struct.archive = type { i32, i32, ptr, i32, ptr, i32, i32, ptr, %struct.archive_string, ptr, i32, i32, ptr, ptr, i64, i64, i64, i8, i64 }
%struct.archive_string = type { ptr, i64, i64 }
%struct._7zip = type { i32, i64, ptr, i64, i64, i64, i64, i64, [3 x i64], i64, i64, i64, i32, i32, i32, i32, i32, i32, %struct.la_zstream, %struct.coder, ptr, [61440 x i8], i64, %struct.anon, %struct.anon, %struct.archive_rb_tree }
%struct.la_zstream = type { ptr, i64, i64, ptr, i64, i64, i32, ptr, i32, ptr, ptr, ptr }
%struct.coder = type { i32, i64, ptr }
%struct.anon = type { ptr, ptr }
%struct.archive_rb_tree = type { ptr, ptr }
%struct.file = type { %struct.archive_rb_node, ptr, i32, ptr, i64, i32, [3 x %struct.anon.0], i32, i32, i8 }
%struct.archive_rb_node = type { [2 x ptr], i64 }
%struct.anon.0 = type { i64, i64 }

; Function Attrs: nounwind uwtable
define internal i64 @_7z_write_data(ptr noundef %0, ptr noundef %1, i64 noundef %2) #0 {
  %4 = alloca i64, align 8
  %5 = alloca ptr, align 8
  %6 = alloca ptr, align 8
  %7 = alloca i64, align 8
  %8 = alloca ptr, align 8
  %9 = alloca i64, align 8
  store ptr %0, ptr %5, align 8
  store ptr %1, ptr %6, align 8
  store i64 %2, ptr %7, align 8
  %10 = load ptr, ptr %5, align 8
  %11 = getelementptr inbounds %struct.archive_write, ptr %10, i32 0, i32 15
  %12 = load ptr, ptr %11, align 8
  store ptr %12, ptr %8, align 8
  %13 = load i64, ptr %7, align 8
  %14 = load ptr, ptr %8, align 8
  %15 = getelementptr inbounds %struct._7zip, ptr %14, i32 0, i32 11
  %16 = load i64, ptr %15, align 8
  %17 = icmp ugt i64 %13, %16
  br i1 %17, label %18, label %22

18:                                               ; preds = %3
  %19 = load ptr, ptr %8, align 8
  %20 = getelementptr inbounds %struct._7zip, ptr %19, i32 0, i32 11
  %21 = load i64, ptr %20, align 8
  store i64 %21, ptr %7, align 8
  br label %22

22:                                               ; preds = %18, %3
  %23 = load i64, ptr %7, align 8
  %24 = icmp eq i64 %23, 0
  br i1 %24, label %30, label %25

25:                                               ; preds = %22
  %26 = load ptr, ptr %8, align 8
  %27 = getelementptr inbounds %struct._7zip, ptr %26, i32 0, i32 2
  %28 = load ptr, ptr %27, align 8
  %29 = icmp eq ptr %28, null
  br i1 %29, label %30, label %31

30:                                               ; preds = %25, %22
  store i64 0, ptr %4, align 8
  br label %58

31:                                               ; preds = %25
  %32 = load ptr, ptr %5, align 8
  %33 = load ptr, ptr %6, align 8
  %34 = load i64, ptr %7, align 8
  %35 = call i64 @compress_out(ptr noundef %32, ptr noundef %33, i64 noundef %34, i32 noundef 1)
  store i64 %35, ptr %9, align 8
  %36 = load i64, ptr %9, align 8
  %37 = icmp slt i64 %36, 0
  br i1 %37, label %38, label %40

38:                                               ; preds = %31
  %39 = load i64, ptr %9, align 8
  store i64 %39, ptr %4, align 8
  br label %58

40:                                               ; preds = %31
  %41 = load ptr, ptr %8, align 8
  %42 = getelementptr inbounds %struct._7zip, ptr %41, i32 0, i32 12
  %43 = load i32, ptr %42, align 8
  %44 = zext i32 %43 to i64
  %45 = load ptr, ptr %6, align 8
  %46 = load i64, ptr %9, align 8
  %47 = trunc i64 %46 to i32
  %48 = call i64 @cm_zlib_crc32(i64 noundef %44, ptr noundef %45, i32 noundef %47)
  %49 = trunc i64 %48 to i32
  %50 = load ptr, ptr %8, align 8
  %51 = getelementptr inbounds %struct._7zip, ptr %50, i32 0, i32 12
  store i32 %49, ptr %51, align 8
  %52 = load i64, ptr %9, align 8
  %53 = load ptr, ptr %8, align 8
  %54 = getelementptr inbounds %struct._7zip, ptr %53, i32 0, i32 11
  %55 = load i64, ptr %54, align 8
  %56 = sub i64 %55, %52
  store i64 %56, ptr %54, align 8
  %57 = load i64, ptr %9, align 8
  store i64 %57, ptr %4, align 8
  br label %58

58:                                               ; preds = %40, %38, %30
  %59 = load i64, ptr %4, align 8
  ret i64 %59
}

; Function Attrs: nounwind uwtable
define internal i32 @_7z_finish_entry(ptr noundef %0) #0 {
  %2 = alloca i32, align 4
  %3 = alloca ptr, align 8
  %4 = alloca ptr, align 8
  %5 = alloca i64, align 8
  %6 = alloca i64, align 8
  store ptr %0, ptr %3, align 8
  %7 = load ptr, ptr %3, align 8
  %8 = getelementptr inbounds %struct.archive_write, ptr %7, i32 0, i32 15
  %9 = load ptr, ptr %8, align 8
  store ptr %9, ptr %4, align 8
  %10 = load ptr, ptr %4, align 8
  %11 = getelementptr inbounds %struct._7zip, ptr %10, i32 0, i32 2
  %12 = load ptr, ptr %11, align 8
  %13 = icmp eq ptr %12, null
  br i1 %13, label %14, label %15

14:                                               ; preds = %1
  store i32 0, ptr %2, align 4
  br label %73

15:                                               ; preds = %1
  br label %16

16:                                               ; preds = %46, %15
  %17 = load ptr, ptr %4, align 8
  %18 = getelementptr inbounds %struct._7zip, ptr %17, i32 0, i32 11
  %19 = load i64, ptr %18, align 8
  %20 = icmp ugt i64 %19, 0
  br i1 %20, label %21, label %47

21:                                               ; preds = %16
  %22 = load ptr, ptr %4, align 8
  %23 = getelementptr inbounds %struct._7zip, ptr %22, i32 0, i32 11
  %24 = load i64, ptr %23, align 8
  store i64 %24, ptr %5, align 8
  %25 = load i64, ptr %5, align 8
  %26 = load ptr, ptr %3, align 8
  %27 = getelementptr inbounds %struct.archive_write, ptr %26, i32 0, i32 5
  %28 = load i64, ptr %27, align 8
  %29 = icmp ugt i64 %25, %28
  br i1 %29, label %30, label %34

30:                                               ; preds = %21
  %31 = load ptr, ptr %3, align 8
  %32 = getelementptr inbounds %struct.archive_write, ptr %31, i32 0, i32 5
  %33 = load i64, ptr %32, align 8
  store i64 %33, ptr %5, align 8
  br label %34

34:                                               ; preds = %30, %21
  %35 = load ptr, ptr %3, align 8
  %36 = load ptr, ptr %3, align 8
  %37 = getelementptr inbounds %struct.archive_write, ptr %36, i32 0, i32 4
  %38 = load ptr, ptr %37, align 8
  %39 = load i64, ptr %5, align 8
  %40 = call i64 @_7z_write_data(ptr noundef %35, ptr noundef %38, i64 noundef %39)
  store i64 %40, ptr %6, align 8
  %41 = load i64, ptr %6, align 8
  %42 = icmp slt i64 %41, 0
  br i1 %42, label %43, label %46

43:                                               ; preds = %34
  %44 = load i64, ptr %6, align 8
  %45 = trunc i64 %44 to i32
  store i32 %45, ptr %2, align 4
  br label %73

46:                                               ; preds = %34
  br label %16, !llvm.loop !5

47:                                               ; preds = %16
  %48 = load ptr, ptr %4, align 8
  %49 = getelementptr inbounds %struct._7zip, ptr %48, i32 0, i32 18
  %50 = getelementptr inbounds %struct.la_zstream, ptr %49, i32 0, i32 2
  %51 = load i64, ptr %50, align 8
  %52 = load ptr, ptr %4, align 8
  %53 = getelementptr inbounds %struct._7zip, ptr %52, i32 0, i32 9
  %54 = load i64, ptr %53, align 8
  %55 = add i64 %54, %51
  store i64 %55, ptr %53, align 8
  %56 = load ptr, ptr %4, align 8
  %57 = getelementptr inbounds %struct._7zip, ptr %56, i32 0, i32 18
  %58 = getelementptr inbounds %struct.la_zstream, ptr %57, i32 0, i32 5
  %59 = load i64, ptr %58, align 8
  %60 = load ptr, ptr %4, align 8
  %61 = getelementptr inbounds %struct._7zip, ptr %60, i32 0, i32 10
  %62 = load i64, ptr %61, align 8
  %63 = add i64 %62, %59
  store i64 %63, ptr %61, align 8
  %64 = load ptr, ptr %4, align 8
  %65 = getelementptr inbounds %struct._7zip, ptr %64, i32 0, i32 12
  %66 = load i32, ptr %65, align 8
  %67 = load ptr, ptr %4, align 8
  %68 = getelementptr inbounds %struct._7zip, ptr %67, i32 0, i32 2
  %69 = load ptr, ptr %68, align 8
  %70 = getelementptr inbounds %struct.file, ptr %69, i32 0, i32 8
  store i32 %66, ptr %70, align 4
  %71 = load ptr, ptr %4, align 8
  %72 = getelementptr inbounds %struct._7zip, ptr %71, i32 0, i32 2
  store ptr null, ptr %72, align 8
  store i32 0, ptr %2, align 4
  br label %73

73:                                               ; preds = %47, %43, %14
  %74 = load i32, ptr %2, align 4
  ret i32 %74
}