; Function Attrs: nounwind uwtable
define internal noundef i32 @_7z_finish_entry(ptr noundef %0) #0 {
  %2 = getelementptr inbounds nuw i8, ptr %0, i64 248
  %3 = load ptr, ptr %2, align 8
  %4 = getelementptr inbounds nuw i8, ptr %3, i64 16
  %5 = load ptr, ptr %4, align 8
  %6 = icmp eq ptr %5, null
  br i1 %6, label %52, label %.preheader

.preheader:                                       ; preds = %1
  %7 = getelementptr inbounds nuw i8, ptr %3, i64 104
  %8 = load i64, ptr %7, align 8
  %.not25 = icmp eq i64 %8, 0
  br i1 %.not25, label %._crit_edge, label %.lr.ph

.lr.ph:                                           ; preds = %.preheader
  %9 = getelementptr inbounds nuw i8, ptr %0, i64 176
  %10 = getelementptr inbounds nuw i8, ptr %0, i64 168
  br label %11

11:                                               ; preds = %.lr.ph, %_7z_write_data.exit
  %12 = phi i64 [ %8, %.lr.ph ], [ %35, %_7z_write_data.exit ]
  %13 = load i64, ptr %9, align 8
  %spec.select = tail call i64 @llvm.umin.i64(i64 %12, i64 %13)
  %14 = load ptr, ptr %10, align 8
  %15 = load ptr, ptr %2, align 8
  %16 = getelementptr inbounds nuw i8, ptr %15, i64 104
  %17 = load i64, ptr %16, align 8
  %spec.select.i = tail call i64 @llvm.umin.i64(i64 %spec.select, i64 %17)
  %18 = icmp eq i64 %spec.select.i, 0
  br i1 %18, label %_7z_write_data.exit, label %19

19:                                               ; preds = %11
  %20 = getelementptr inbounds nuw i8, ptr %15, i64 16
  %21 = load ptr, ptr %20, align 8
  %22 = icmp eq ptr %21, null
  br i1 %22, label %_7z_write_data.exit, label %23

23:                                               ; preds = %19
  %24 = tail call fastcc i64 @compress_out(ptr noundef nonnull %0, ptr noundef %14, i64 noundef %spec.select.i, i32 noundef 1)
  %25 = icmp slt i64 %24, 0
  br i1 %25, label %36, label %26

26:                                               ; preds = %23
  %27 = getelementptr inbounds nuw i8, ptr %15, i64 112
  %28 = load i32, ptr %27, align 8
  %29 = zext i32 %28 to i64
  %30 = trunc i64 %24 to i32
  %31 = tail call i64 @cm_zlib_crc32(i64 noundef %29, ptr noundef %14, i32 noundef %30) #18
  %32 = trunc i64 %31 to i32
  store i32 %32, ptr %27, align 8
  %33 = load i64, ptr %16, align 8
  %34 = sub i64 %33, %24
  store i64 %34, ptr %16, align 8
  %.pre = load i64, ptr %7, align 8
  br label %_7z_write_data.exit

_7z_write_data.exit:                              ; preds = %11, %19, %26
  %35 = phi i64 [ %12, %11 ], [ %12, %19 ], [ %.pre, %26 ]
  %.not = icmp eq i64 %35, 0
  br i1 %.not, label %._crit_edge.loopexit, label %11, !llvm.loop !5

36:                                               ; preds = %23
  %37 = trunc i64 %24 to i32
  br label %52

._crit_edge.loopexit:                             ; preds = %_7z_write_data.exit
  %.pre26 = load ptr, ptr %4, align 8
  br label %._crit_edge

._crit_edge:                                      ; preds = %._crit_edge.loopexit, %.preheader
  %38 = phi ptr [ %.pre26, %._crit_edge.loopexit ], [ %5, %.preheader ]
  %39 = getelementptr inbounds nuw i8, ptr %3, i64 152
  %40 = load i64, ptr %39, align 8
  %41 = getelementptr inbounds nuw i8, ptr %3, i64 88
  %42 = load i64, ptr %41, align 8
  %43 = add i64 %42, %40
  store i64 %43, ptr %41, align 8
  %44 = getelementptr inbounds nuw i8, ptr %3, i64 176
  %45 = load i64, ptr %44, align 8
  %46 = getelementptr inbounds nuw i8, ptr %3, i64 96
  %47 = load i64, ptr %46, align 8
  %48 = add i64 %47, %45
  store i64 %48, ptr %46, align 8
  %49 = getelementptr inbounds nuw i8, ptr %3, i64 112
  %50 = load i32, ptr %49, align 8
  %51 = getelementptr inbounds nuw i8, ptr %38, i64 116
  store i32 %50, ptr %51, align 4
  store ptr null, ptr %4, align 8
  br label %52

52:                                               ; preds = %1, %._crit_edge, %36
  %.0 = phi i32 [ %37, %36 ], [ 0, %._crit_edge ], [ 0, %1 ]
  ret i32 %.0
}